target datalayout = "e-m:e-p270:32:32-p271:32:32-p272:64:64-i64:64-i128:128-f80:128-n8:16:32:64-S128"
target triple = "x86_64-pc-linux-gnu"

%struct.t_acf = type { i64, i32, i32, i32, i32, i8, i8, float, float }

@_ZL3acf = internal global %struct.t_acf zeroinitializer, align 8
@_ZL3Leg = internal global [6 x ptr] [ptr null, ptr @.str.62, ptr @.str.63, ptr @.str.64, ptr @.str.65, ptr null], align 16
@s_ffn = external global [13 x ptr], align 16
@_ZL8bACFinit = internal global i8 0, align 1
@.str.66 = private unnamed_addr constant [67 x i8] c"ACF data structures have not been initialised. Call add_acf_pargs\0A\00", align 1
@.str.67 = private unnamed_addr constant [3 x i8] c"%d\00", align 1

; Function Attrs: mustprogress uwtable
define void @_Z11do_autocorrPKcPK16gmx_output_env_tS0_iiPPffmb(ptr noundef %0, ptr noundef %1, ptr noundef %2, i32 noundef %3, i32 noundef %4, ptr noundef %5, float noundef %6, i64 noundef %7, i1 noundef zeroext %8) #0 {
  %10 = alloca ptr, align 8
  %11 = alloca ptr, align 8
  %12 = alloca ptr, align 8
  %13 = alloca i32, align 4
  %14 = alloca i32, align 4
  %15 = alloca ptr, align 8
  %16 = alloca float, align 4
  %17 = alloca i64, align 8
  %18 = alloca i8, align 1
  store ptr %0, ptr %10, align 8
  store ptr %1, ptr %11, align 8
  store ptr %2, ptr %12, align 8
  store i32 %3, ptr %13, align 4
  store i32 %4, ptr %14, align 4
  store ptr %5, ptr %15, align 8
  store float %6, ptr %16, align 4
  store i64 %7, ptr %17, align 8
  %19 = zext i1 %8 to i8
  store i8 %19, ptr %18, align 1
  %20 = load i8, ptr @_ZL8bACFinit, align 1
  %21 = trunc i8 %20 to i1
  br i1 %21, label %24, label %22

22:                                               ; preds = %9
  %23 = call i32 (ptr, ...) @printf(ptr noundef @.str.66)
  br label %24

24:                                               ; preds = %22, %9
  %25 = load ptr, ptr @_ZL3Leg, align 16
  %26 = call i32 (ptr, ptr, ...) @__isoc99_sscanf(ptr noundef %25, ptr noundef @.str.67, ptr noundef getelementptr inbounds (%struct.t_acf, ptr @_ZL3acf, i32 0, i32 3)) #13
  %27 = call noundef i32 @_Z9sffn2effnPPKc(ptr noundef @s_ffn)
  store i32 %27, ptr getelementptr inbounds (%struct.t_acf, ptr @_ZL3acf, i32 0, i32 4), align 4
  %28 = load i32, ptr getelementptr inbounds (%struct.t_acf, ptr @_ZL3acf, i32 0, i32 3), align 8
  switch i32 %28, label %38 [
    i32 1, label %29
    i32 2, label %32
    i32 3, label %35
  ]

29:                                               ; preds = %24
  %30 = load i64, ptr %17, align 8
  %31 = or i64 %30, 36
  store i64 %31, ptr %17, align 8
  br label %39

32:                                               ; preds = %24
  %33 = load i64, ptr %17, align 8
  %34 = or i64 %33, 68
  store i64 %34, ptr %17, align 8
  br label %39

35:                                               ; preds = %24
  %36 = load i64, ptr %17, align 8
  %37 = or i64 %36, 132
  store i64 %37, ptr %17, align 8
  br label %39

38:                                               ; preds = %24
  br label %39

39:                                               ; preds = %38, %35, %32, %29
  %40 = load ptr, ptr %10, align 8
  %41 = load ptr, ptr %11, align 8
  %42 = load ptr, ptr %12, align 8
  %43 = load i32, ptr %13, align 4
  %44 = load i32, ptr %14, align 4
  %45 = load i32, ptr getelementptr inbounds (%struct.t_acf, ptr @_ZL3acf, i32 0, i32 2), align 4
  %46 = load ptr, ptr %15, align 8
  %47 = load float, ptr %16, align 4
  %48 = load i64, ptr %17, align 8
  %49 = load i32, ptr getelementptr inbounds (%struct.t_acf, ptr @_ZL3acf, i32 0, i32 1), align 8
  %50 = load i8, ptr %18, align 1
  %51 = trunc i8 %50 to i1
  %52 = load i8, ptr getelementptr inbounds (%struct.t_acf, ptr @_ZL3acf, i32 0, i32 6), align 1
  %53 = trunc i8 %52 to i1
  %54 = call noundef zeroext i1 @_Z10bDebugModev()
  %55 = load float, ptr getelementptr inbounds (%struct.t_acf, ptr @_ZL3acf, i32 0, i32 7), align 4
  %56 = load float, ptr getelementptr inbounds (%struct.t_acf, ptr @_ZL3acf, i32 0, i32 8), align 8
  %57 = load i32, ptr getelementptr inbounds (%struct.t_acf, ptr @_ZL3acf, i32 0, i32 4), align 4
  call void @_Z15low_do_autocorrPKcPK16gmx_output_env_tS0_iiiPPffmibbbffi(ptr noundef %40, ptr noundef %41, ptr noundef %42, i32 noundef %43, i32 noundef %44, i32 noundef %45, ptr noundef %46, float noundef %47, i64 noundef %48, i32 noundef %49, i1 noundef zeroext %51, i1 noundef zeroext %53, i1 noundef zeroext %54, float noundef %55, float noundef %56, i32 noundef %57)
  ret void
}