; Function Attrs: mustprogress uwtable
define void @_Z11do_autocorrPKcPK16gmx_output_env_tS0_iiPPffmb(ptr noundef %0, ptr noundef %1, ptr noundef %2, i32 noundef %3, i32 noundef %4, ptr nocapture noundef readonly %5, float noundef %6, i64 noundef %7, i1 noundef zeroext %8) local_unnamed_addr #0 {
  %.b11 = load i1, ptr @_ZL8bACFinit, align 1
  br i1 %.b11, label %11, label %10

10:                                               ; preds = %9
  %puts = tail call i32 @puts(ptr nonnull dereferenceable(1) @str.2)
  br label %11

11:                                               ; preds = %10, %9
  %12 = load ptr, ptr @_ZL3Leg, align 16
  %13 = tail call i32 (ptr, ptr, ...) @__isoc99_sscanf(ptr noundef %12, ptr noundef nonnull @.str.67, ptr noundef nonnull getelementptr inbounds (%struct.t_acf, ptr @_ZL3acf, i64 0, i32 3)) #19
  %14 = tail call noundef i32 @_Z9sffn2effnPPKc(ptr noundef nonnull @s_ffn)
  store i32 %14, ptr getelementptr inbounds (%struct.t_acf, ptr @_ZL3acf, i64 0, i32 4), align 4
  %15 = load i32, ptr getelementptr inbounds (%struct.t_acf, ptr @_ZL3acf, i64 0, i32 3), align 8
  switch i32 %15, label %22 [
    i32 1, label %16
    i32 2, label %18
    i32 3, label %20
  ]

16:                                               ; preds = %11
  %17 = or i64 %7, 36
  br label %22

18:                                               ; preds = %11
  %19 = or i64 %7, 68
  br label %22

20:                                               ; preds = %11
  %21 = or i64 %7, 132
  br label %22

22:                                               ; preds = %11, %20, %18, %16
  %.0 = phi i64 [ %7, %11 ], [ %21, %20 ], [ %19, %18 ], [ %17, %16 ]
  %23 = load i32, ptr getelementptr inbounds (%struct.t_acf, ptr @_ZL3acf, i64 0, i32 1), align 8
  %24 = load i8, ptr getelementptr inbounds (%struct.t_acf, ptr @_ZL3acf, i64 0, i32 6), align 1
  %25 = trunc i8 %24 to i1
  %26 = tail call noundef zeroext i1 @_Z10bDebugModev()
  %27 = load float, ptr getelementptr inbounds (%struct.t_acf, ptr @_ZL3acf, i64 0, i32 7), align 4
  %28 = load float, ptr getelementptr inbounds (%struct.t_acf, ptr @_ZL3acf, i64 0, i32 8), align 8
  %29 = load i32, ptr getelementptr inbounds (%struct.t_acf, ptr @_ZL3acf, i64 0, i32 4), align 4
  tail call void @_Z15low_do_autocorrPKcPK16gmx_output_env_tS0_iiiPPffmibbbffi(ptr noundef %0, ptr noundef %1, ptr noundef %2, i32 noundef %3, i32 noundef %4, i32 poison, ptr noundef %5, float noundef %6, i64 noundef %.0, i32 noundef %23, i1 noundef zeroext %8, i1 noundef zeroext %25, i1 noundef zeroext %26, float noundef %27, float noundef %28, i32 noundef %29)
  ret void
}